target datalayout = "e-m:e-p270:32:32-p271:32:32-p272:64:64-i64:64-i128:128-f80:128-n8:16:32:64-S128"
target triple = "x86_64-pc-linux-gnu"

%struct.UCharIterator = type { ptr, i32, i32, i32, i32, i32, ptr, ptr, ptr, ptr, ptr, ptr, ptr, ptr, ptr, ptr }

; Function Attrs: inlinehint mustprogress nounwind uwtable
define internal noundef signext i8 @_ZL9U_FAILURE10UErrorCode(i32 noundef %0) #7 {
  %2 = alloca i32, align 4
  store i32 %0, ptr %2, align 4, !tbaa !34
  %3 = load i32, ptr %2, align 4, !tbaa !34
  %4 = icmp sgt i32 %3, 0
  %5 = zext i1 %4 to i8
  ret i8 %5
}

; Function Attrs: mustprogress uwtable
define internal void @_ZL22stringIteratorSetStateP13UCharIteratorjP10UErrorCode(ptr noundef %0, i32 noundef %1, ptr noundef %2) #0 {
  %4 = alloca ptr, align 8
  %5 = alloca i32, align 4
  %6 = alloca ptr, align 8
  store ptr %0, ptr %4, align 8, !tbaa !3
  store i32 %1, ptr %5, align 4, !tbaa !10
  store ptr %2, ptr %6, align 8, !tbaa !13
  %7 = load ptr, ptr %6, align 8, !tbaa !13
  %8 = icmp eq ptr %7, null
  br i1 %8, label %14, label %9

9:                                                ; preds = %3
  %10 = load ptr, ptr %6, align 8, !tbaa !13
  %11 = load i32, ptr %10, align 4, !tbaa !34
  %12 = call noundef signext i8 @_ZL9U_FAILURE10UErrorCode(i32 noundef %11)
  %13 = icmp ne i8 %12, 0
  br i1 %13, label %14, label %15

14:                                               ; preds = %9, %3
  br label %40

15:                                               ; preds = %9
  %16 = load ptr, ptr %4, align 8, !tbaa !3
  %17 = icmp eq ptr %16, null
  br i1 %17, label %18, label %20

18:                                               ; preds = %15
  %19 = load ptr, ptr %6, align 8, !tbaa !13
  store i32 1, ptr %19, align 4, !tbaa !34
  br label %39

20:                                               ; preds = %15
  %21 = load i32, ptr %5, align 4, !tbaa !10
  %22 = load ptr, ptr %4, align 8, !tbaa !3
  %23 = getelementptr inbounds nuw %struct.UCharIterator, ptr %22, i32 0, i32 2
  %24 = load i32, ptr %23, align 4, !tbaa !39
  %25 = icmp slt i32 %21, %24
  br i1 %25, label %32, label %26

26:                                               ; preds = %20
  %27 = load ptr, ptr %4, align 8, !tbaa !3
  %28 = getelementptr inbounds nuw %struct.UCharIterator, ptr %27, i32 0, i32 4
  %29 = load i32, ptr %28, align 4, !tbaa !17
  %30 = load i32, ptr %5, align 4, !tbaa !10
  %31 = icmp slt i32 %29, %30
  br i1 %31, label %32, label %34

32:                                               ; preds = %26, %20
  %33 = load ptr, ptr %6, align 8, !tbaa !13
  store i32 8, ptr %33, align 4, !tbaa !34
  br label %38

34:                                               ; preds = %26
  %35 = load i32, ptr %5, align 4, !tbaa !10
  %36 = load ptr, ptr %4, align 8, !tbaa !3
  %37 = getelementptr inbounds nuw %struct.UCharIterator, ptr %36, i32 0, i32 3
  store i32 %35, ptr %37, align 8, !tbaa !40
  br label %38

38:                                               ; preds = %34, %32
  br label %39

39:                                               ; preds = %38, %18
  br label %40

40:                                               ; preds = %39, %14
  ret void
}