; Function Attrs: mustprogress nofree norecurse nosync nounwind willreturn memory(argmem: readwrite) uwtable
define internal void @_ZL22stringIteratorSetStateP13UCharIteratorjP10UErrorCode(ptr noundef %0, i32 noundef %1, ptr noundef %2) #3 {
  %4 = icmp eq ptr %2, null
  br i1 %4, label %22, label %5

5:                                                ; preds = %3
  %6 = load i32, ptr %2, align 4, !tbaa !24
  %7 = icmp slt i32 %6, 1
  br i1 %7, label %8, label %22

8:                                                ; preds = %5
  %9 = icmp eq ptr %0, null
  br i1 %9, label %10, label %11

10:                                               ; preds = %8
  store i32 1, ptr %2, align 4, !tbaa !24
  br label %22

11:                                               ; preds = %8
  %12 = getelementptr inbounds nuw i8, ptr %0, i64 12
  %13 = load i32, ptr %12, align 4, !tbaa !27
  %14 = icmp slt i32 %1, %13
  br i1 %14, label %19, label %15

15:                                               ; preds = %11
  %16 = getelementptr inbounds nuw i8, ptr %0, i64 20
  %17 = load i32, ptr %16, align 4, !tbaa !13
  %18 = icmp slt i32 %17, %1
  br i1 %18, label %19, label %20

19:                                               ; preds = %15, %11
  store i32 8, ptr %2, align 4, !tbaa !24
  br label %22

20:                                               ; preds = %15
  %21 = getelementptr inbounds nuw i8, ptr %0, i64 16
  store i32 %1, ptr %21, align 8, !tbaa !28
  br label %22

22:                                               ; preds = %10, %20, %19, %3, %5
  ret void
}